(dp0
S'assignment_id'
p1
V3VELCLL3GKJ1Y9SX1BZVSTYS3UZ1F5
p2
sS'turk_submit_to'
p3
Vhttps://workersandbox.mturk.com
p4
sS'amazon_host'
p5
S'https://workersandbox.mturk.com/mturk/externalSubmit'
p6
sS'worker_id'
p7
VASY0JADNTLDAT
p8
sS'hit_id'
p9
V3IKMEYR0LWVGGW4DVOL4O55MYJYK2E
p10
s.