(dp0
S'assignment_id'
p1
V31QTRG6Q2TDAFSSUR329IAN6CLLYPT
p2
sS'turk_submit_to'
p3
Vhttps://workersandbox.mturk.com
p4
sS'amazon_host'
p5
S'https://workersandbox.mturk.com/mturk/externalSubmit'
p6
sS'worker_id'
p7
VASY0JADNTLDAT
p8
sS'hit_id'
p9
V3R5LWXWHR08CFQBRTMLIG37P4AQGXO
p10
s.