(dp0
S'assignment_id'
p1
V3NS0A6KXC4847590K6E528IGHO3GZZ
p2
sS'turk_submit_to'
p3
Vhttps://workersandbox.mturk.com
p4
sS'amazon_host'
p5
S'https://workersandbox.mturk.com/mturk/externalSubmit'
p6
sS'worker_id'
p7
VASY0JADNTLDAT
p8
sS'hit_id'
p9
V36AZSFEYZ40OKKYLDLSMR7J78MQVBJ
p10
s.