(dp0
S'assignment_id'
p1
V3TEM0PF1Q5X4T0TJEM05QOCXMPED04
p2
sS'turk_submit_to'
p3
Vhttps://workersandbox.mturk.com
p4
sS'amazon_host'
p5
S'https://workersandbox.mturk.com/mturk/externalSubmit'
p6
sS'worker_id'
p7
VASY0JADNTLDAT
p8
sS'hit_id'
p9
V3LN3BXKGC0VXQQ61JHPWEKTIV9EWG7
p10
s.