(dp0
S'assignment_id'
p1
V3IQ1VMJRYTKORNEKU8SWTY5K4Q1A91
p2
sS'turk_submit_to'
p3
Vhttps://workersandbox.mturk.com
p4
sS'amazon_host'
p5
S'https://workersandbox.mturk.com/mturk/externalSubmit'
p6
sS'worker_id'
p7
VASY0JADNTLDAT
p8
sS'hit_id'
p9
V3EN4YVUOUCSM6S1S1S6LDGZ5W27XJ9
p10
s.