(dp0
S'assignment_id'
p1
VASSIGNMENT_ID_NOT_AVAILABLE
p2
sS'turk_submit_to'
p3
NsS'amazon_host'
p4
S'https://workersandbox.mturk.com/mturk/externalSubmit'
p5
sS'worker_id'
p6
NsS'hit_id'
p7
V3OND0WXMHWFH9MFLIND8DEYJ345HES
p8
s.