(dp0
S'assignment_id'
p1
V31HQ4X3T3SANSL1N05HDJ7QLQQTSLG
p2
sS'turk_submit_to'
p3
Vhttps://workersandbox.mturk.com
p4
sS'amazon_host'
p5
S'https://workersandbox.mturk.com/mturk/externalSubmit'
p6
sS'worker_id'
p7
VASY0JADNTLDAT
p8
sS'hit_id'
p9
V37VUR2VJ6APR8DATK74SV3I913Y1CM
p10
s.