(i__main__
Client
p0
(dp1
S'files'
p2
(lp3
S'i01_01_4.bmp'
p4
aS'i03_01_3.bmp'
p5
aS'i04_20_2.bmp'
p6
aS'i07_02_4.bmp'
p7
aS'i08_18_1.bmp'
p8
aS'i09_19_5.bmp'
p9
aS'i11_12_3.bmp'
p10
aS'i13_07_4.bmp'
p11
aS'i15_21_1.bmp'
p12
aS'i18_05_5.bmp'
p13
aS'i21_04_1.bmp'
p14
aS'i24_14_5.bmp'
p15
aS'i25_23_5.bmp'
p16
asS'distance'
p17
V29
p18
sS'age'
p19
V30
p20
sS'userID'
p21
(dp22
VMAX(USER_ID)
p23
I2
ssS'sex'
p24
VMALE
p25
sS'numHIT'
p26
I0
sS'image'
p27
NsS'imageID'
p28
I0
sS'display'
p29
VTFT LCD
p30
sb.