(i__main__
Client
p0
(dp1
S'files'
p2
(lp3
S'i01_01_5.bmp'
p4
aS'i01_02_1.bmp'
p5
aS'i01_02_2.bmp'
p6
aS'i01_02_3.bmp'
p7
aS'i01_02_4.bmp'
p8
aS'i01_02_5.bmp'
p9
aS'i01_03_1.bmp'
p10
aS'i01_03_2.bmp'
p11
aS'i01_03_3.bmp'
p12
aS'i01_03_4.bmp'
p13
aS'i01_03_5.bmp'
p14
aS'i01_04_1.bmp'
p15
aS'i01_04_3.bmp'
p16
aS'i01_04_4.bmp'
p17
aS'i01_04_5.bmp'
p18
aS'i01_05_1.bmp'
p19
aS'i01_05_2.bmp'
p20
aS'i01_05_3.bmp'
p21
aS'i01_05_4.bmp'
p22
aS'i01_05_5.bmp'
p23
aS'i01_06_1.bmp'
p24
aS'i01_06_2.bmp'
p25
aS'i01_06_3.bmp'
p26
aS'i01_06_4.bmp'
p27
aS'i01_06_5.bmp'
p28
aS'i01_07_1.bmp'
p29
aS'i01_07_2.bmp'
p30
aS'i01_07_3.bmp'
p31
aS'i01_07_4.bmp'
p32
aS'i01_07_5.bmp'
p33
aS'i01_08_1.bmp'
p34
aS'i01_08_3.bmp'
p35
aS'i01_08_4.bmp'
p36
aS'i01_08_5.bmp'
p37
aS'i01_09_2.bmp'
p38
aS'i01_09_3.bmp'
p39
aS'i01_09_4.bmp'
p40
aS'i01_09_5.bmp'
p41
aS'i01_10_1.bmp'
p42
aS'i01_10_2.bmp'
p43
aS'i01_10_3.bmp'
p44
aS'i01_10_4.bmp'
p45
aS'i01_10_5.bmp'
p46
aS'I01_11_1.BMP'
p47
aS'i01_11_2.bmp'
p48
aS'i01_11_3.bmp'
p49
aS'i01_11_4.bmp'
p50
aS'i01_11_5.bmp'
p51
aS'i01_12_1.bmp'
p52
aS'i01_12_2.bmp'
p53
aS'i01_12_3.bmp'
p54
aS'i01_12_4.bmp'
p55
aS'i01_12_5.bmp'
p56
aS'I01_13_1.BMP'
p57
aS'i01_13_2.bmp'
p58
aS'i01_13_3.bmp'
p59
aS'i01_13_4.bmp'
p60
aS'i01_13_5.bmp'
p61
aS'i01_14_1.bmp'
p62
aS'i01_14_2.bmp'
p63
aS'i01_14_3.bmp'
p64
aS'i01_14_4.bmp'
p65
aS'i01_14_5.bmp'
p66
aS'i01_15_1.bmp'
p67
aS'i01_15_2.bmp'
p68
aS'i01_15_3.bmp'
p69
aS'i01_15_4.bmp'
p70
aS'i01_15_5.bmp'
p71
aS'i01_16_1.bmp'
p72
aS'i01_16_2.bmp'
p73
aS'i01_16_3.bmp'
p74
aS'i01_16_4.bmp'
p75
aS'i01_16_5.bmp'
p76
aS'i01_17_1.bmp'
p77
aS'i01_17_3.bmp'
p78
aS'i01_17_4.bmp'
p79
aS'i01_17_5.bmp'
p80
aS'i01_18_1.bmp'
p81
aS'i01_18_2.bmp'
p82
aS'i01_18_3.bmp'
p83
aS'i01_18_4.bmp'
p84
aS'i01_18_5.bmp'
p85
aS'i01_19_1.bmp'
p86
aS'i01_19_2.bmp'
p87
aS'i01_19_3.bmp'
p88
aS'i01_19_4.bmp'
p89
aS'i01_19_5.bmp'
p90
aS'i01_20_1.bmp'
p91
aS'i01_20_2.bmp'
p92
aS'i01_20_3.bmp'
p93
aS'i01_20_4.bmp'
p94
aS'i01_20_5.bmp'
p95
aS'i01_21_1.bmp'
p96
aS'i01_21_2.bmp'
p97
aS'i01_21_3.bmp'
p98
aS'i01_21_4.bmp'
p99
aS'i01_22_1.bmp'
p100
aS'i01_22_2.bmp'
p101
aS'i01_22_3.bmp'
p102
aS'i01_22_4.bmp'
p103
aS'i01_22_5.bmp'
p104
aS'i01_23_1.bmp'
p105
aS'i01_23_2.bmp'
p106
aS'i01_23_3.bmp'
p107
aS'i01_23_4.bmp'
p108
aS'i01_23_5.bmp'
p109
aS'i01_24_1.bmp'
p110
aS'i01_24_2.bmp'
p111
aS'i01_24_3.bmp'
p112
aS'i01_24_4.bmp'
p113
aS'i01_24_5.bmp'
p114
aS'I02_01_1.bmp'
p115
aS'i02_01_2.bmp'
p116
aS'i02_01_3.bmp'
p117
aS'i02_01_4.bmp'
p118
aS'i02_01_5.bmp'
p119
aS'i02_02_1.bmp'
p120
aS'i02_02_2.bmp'
p121
aS'i02_02_3.bmp'
p122
aS'i02_02_4.bmp'
p123
aS'i02_02_5.bmp'
p124
aS'i02_03_1.bmp'
p125
aS'i02_03_2.bmp'
p126
aS'i02_03_3.bmp'
p127
aS'i02_03_4.bmp'
p128
aS'i02_03_5.bmp'
p129
aS'i02_04_2.bmp'
p130
aS'i02_04_3.bmp'
p131
aS'i02_04_4.bmp'
p132
aS'i02_04_5.bmp'
p133
aS'i02_05_1.bmp'
p134
aS'i02_05_2.bmp'
p135
aS'i02_05_3.bmp'
p136
aS'i02_05_4.bmp'
p137
aS'i02_05_5.bmp'
p138
aS'i02_06_1.bmp'
p139
aS'i02_06_2.bmp'
p140
aS'i02_06_3.bmp'
p141
aS'i02_06_4.bmp'
p142
aS'i02_06_5.bmp'
p143
aS'i02_07_1.bmp'
p144
aS'i02_07_2.bmp'
p145
aS'i02_07_3.bmp'
p146
aS'i02_07_4.bmp'
p147
aS'i02_07_5.bmp'
p148
aS'i02_08_1.bmp'
p149
aS'i02_08_2.bmp'
p150
aS'i02_08_3.bmp'
p151
aS'i02_08_4.bmp'
p152
aS'i02_08_5.bmp'
p153
aS'i02_09_1.bmp'
p154
aS'i02_09_2.bmp'
p155
aS'i02_09_3.bmp'
p156
aS'i02_09_4.bmp'
p157
aS'i02_09_5.bmp'
p158
aS'i02_10_1.bmp'
p159
aS'i02_10_2.bmp'
p160
aS'i02_10_3.bmp'
p161
aS'i02_10_4.bmp'
p162
aS'i02_10_5.bmp'
p163
aS'I02_11_1.BMP'
p164
aS'i02_11_2.bmp'
p165
aS'i02_11_3.bmp'
p166
aS'i02_11_4.bmp'
p167
aS'i02_11_5.bmp'
p168
aS'i02_12_1.bmp'
p169
aS'i02_12_2.bmp'
p170
aS'i02_12_3.bmp'
p171
aS'i02_12_4.bmp'
p172
aS'i02_12_5.bmp'
p173
aS'I02_13_1.BMP'
p174
aS'i02_13_3.bmp'
p175
aS'i02_13_4.bmp'
p176
aS'i02_13_5.bmp'
p177
aS'i02_14_1.bmp'
p178
aS'i02_14_2.bmp'
p179
aS'i02_14_3.bmp'
p180
aS'i02_14_4.bmp'
p181
aS'i02_14_5.bmp'
p182
aS'i02_15_1.bmp'
p183
aS'i02_15_2.bmp'
p184
aS'i02_15_3.bmp'
p185
aS'i02_15_4.bmp'
p186
aS'i02_15_5.bmp'
p187
aS'i02_16_1.bmp'
p188
aS'i02_16_2.bmp'
p189
aS'i02_16_4.bmp'
p190
aS'i02_16_5.bmp'
p191
aS'i02_17_1.bmp'
p192
aS'i02_17_2.bmp'
p193
aS'i02_17_3.bmp'
p194
aS'i02_17_4.bmp'
p195
aS'i02_17_5.bmp'
p196
aS'i02_18_1.bmp'
p197
aS'i02_18_2.bmp'
p198
aS'i02_18_3.bmp'
p199
aS'i02_18_4.bmp'
p200
aS'i02_18_5.bmp'
p201
aS'i02_19_1.bmp'
p202
aS'i02_19_2.bmp'
p203
aS'i02_19_3.bmp'
p204
aS'i02_19_4.bmp'
p205
aS'i02_19_5.bmp'
p206
aS'i02_20_1.bmp'
p207
aS'i02_20_2.bmp'
p208
aS'i02_20_3.bmp'
p209
aS'i02_20_4.bmp'
p210
aS'i02_20_5.bmp'
p211
aS'i02_21_1.bmp'
p212
aS'i02_21_2.bmp'
p213
aS'i02_21_3.bmp'
p214
aS'i02_21_4.bmp'
p215
aS'i02_21_5.bmp'
p216
aS'i02_22_1.bmp'
p217
aS'i02_22_2.bmp'
p218
aS'i02_22_4.bmp'
p219
aS'i02_22_5.bmp'
p220
aS'i02_23_1.bmp'
p221
aS'i02_23_2.bmp'
p222
aS'i02_23_3.bmp'
p223
aS'i02_23_4.bmp'
p224
aS'i02_23_5.bmp'
p225
aS'i02_24_1.bmp'
p226
aS'i02_24_2.bmp'
p227
aS'i02_24_3.bmp'
p228
aS'i02_24_4.bmp'
p229
aS'i02_24_5.bmp'
p230
aS'I03_01_1.bmp'
p231
aS'i03_01_2.bmp'
p232
aS'i03_01_5.bmp'
p233
aS'i03_02_1.bmp'
p234
aS'i03_02_2.bmp'
p235
aS'i03_02_3.bmp'
p236
aS'i03_02_4.bmp'
p237
aS'i03_02_5.bmp'
p238
aS'i03_03_1.bmp'
p239
aS'i03_03_2.bmp'
p240
aS'i03_03_3.bmp'
p241
aS'i03_03_4.bmp'
p242
aS'i03_03_5.bmp'
p243
aS'i03_04_1.bmp'
p244
aS'i03_04_2.bmp'
p245
aS'i03_04_3.bmp'
p246
aS'i03_04_4.bmp'
p247
aS'i03_04_5.bmp'
p248
aS'i03_05_1.bmp'
p249
aS'i03_05_2.bmp'
p250
aS'i03_05_3.bmp'
p251
aS'i03_05_4.bmp'
p252
aS'i03_05_5.bmp'
p253
aS'i03_06_1.bmp'
p254
aS'i03_06_2.bmp'
p255
aS'i03_06_3.bmp'
p256
aS'i03_06_4.bmp'
p257
aS'i03_06_5.bmp'
p258
aS'i03_07_1.bmp'
p259
aS'i03_07_2.bmp'
p260
aS'i03_07_3.bmp'
p261
aS'i03_07_4.bmp'
p262
aS'i03_07_5.bmp'
p263
aS'i03_08_1.bmp'
p264
aS'i03_08_2.bmp'
p265
aS'i03_08_3.bmp'
p266
aS'i03_08_4.bmp'
p267
aS'i03_08_5.bmp'
p268
aS'i03_09_1.bmp'
p269
aS'i03_09_2.bmp'
p270
aS'i03_09_3.bmp'
p271
aS'i03_09_4.bmp'
p272
aS'i03_09_5.bmp'
p273
aS'i03_10_1.bmp'
p274
aS'i03_10_2.bmp'
p275
aS'i03_10_3.bmp'
p276
aS'i03_10_4.bmp'
p277
aS'I03_11_1.BMP'
p278
aS'i03_11_2.bmp'
p279
asS'distance'
p280
V24
p281
sS'age'
p282
V22
p283
sS'userID'
p284
(dp285
VMAX(USER_ID)
p286
I7
ssS'sex'
p287
VMALE
p288
sS'numHIT'
p289
I9
sS'image'
p290
S'i01_04_2.bmp'
p291
sS'imageID'
p292
(dp293
VImage_ID
p294
I12
ssS'display'
p295
VIPS LCD
p296
sb.